target datalayout = "e-m:e-p270:32:32-p271:32:32-p272:64:64-i64:64-i128:128-f80:128-n8:16:32:64-S128"
target triple = "x86_64-pc-linux-gnu"

%struct.WalSummaryFile = type { i64, i64, i32 }
%struct.stat = type { i64, i64, i64, i32, i32, i32, i32, i64, i64, i64, i64, %struct.timespec, %struct.timespec, %struct.timespec, [3 x i64] }
%struct.timespec = type { i64, i64 }

@.str.2 = private unnamed_addr constant [46 x i8] c"pg_wal/summaries/%08X%08X%08X%08X%08X.summary\00", align 1
@.str.4 = private unnamed_addr constant [13 x i8] c"walsummary.c\00", align 1
@.str.5 = private unnamed_addr constant [29 x i8] c"could not stat file \22%s\22: %m\00", align 1
@__func__.RemoveWalSummaryIfOlderThan = private unnamed_addr constant [28 x i8] c"RemoveWalSummaryIfOlderThan\00", align 1
@.str.6 = private unnamed_addr constant [19 x i8] c"removing file \22%s\22\00", align 1

; Function Attrs: nounwind uwtable
define dso_local void @RemoveWalSummaryIfOlderThan(ptr noundef %0, i64 noundef %1) #0 {
  %3 = alloca ptr, align 8
  %4 = alloca i64, align 8
  %5 = alloca [1024 x i8], align 16
  %6 = alloca %struct.stat, align 8
  %7 = alloca i32, align 4
  %8 = alloca i32, align 4
  %9 = alloca i32, align 4
  store ptr %0, ptr %3, align 8
  store i64 %1, ptr %4, align 8
  call void @llvm.lifetime.start.p0(i64 1024, ptr %5) #10
  call void @llvm.lifetime.start.p0(i64 144, ptr %6) #10
  %10 = getelementptr inbounds [1024 x i8], ptr %5, i64 0, i64 0
  %11 = load ptr, ptr %3, align 8
  %12 = getelementptr inbounds nuw %struct.WalSummaryFile, ptr %11, i32 0, i32 2
  %13 = load i32, ptr %12, align 8
  br label %14

14:                                               ; preds = %2
  br label %15

15:                                               ; preds = %14
  br label %16

16:                                               ; preds = %15
  store i32 1, ptr %7, align 4
  %17 = load ptr, ptr %3, align 8
  %18 = getelementptr inbounds nuw %struct.WalSummaryFile, ptr %17, i32 0, i32 0
  %19 = load i64, ptr %18, align 8
  %20 = lshr i64 %19, 32
  %21 = trunc i64 %20 to i32
  %22 = load ptr, ptr %3, align 8
  %23 = getelementptr inbounds nuw %struct.WalSummaryFile, ptr %22, i32 0, i32 0
  %24 = load i64, ptr %23, align 8
  %25 = trunc i64 %24 to i32
  br label %26

26:                                               ; preds = %16
  br label %27

27:                                               ; preds = %26
  br label %28

28:                                               ; preds = %27
  store i32 1, ptr %8, align 4
  %29 = load ptr, ptr %3, align 8
  %30 = getelementptr inbounds nuw %struct.WalSummaryFile, ptr %29, i32 0, i32 1
  %31 = load i64, ptr %30, align 8
  %32 = lshr i64 %31, 32
  %33 = trunc i64 %32 to i32
  %34 = load ptr, ptr %3, align 8
  %35 = getelementptr inbounds nuw %struct.WalSummaryFile, ptr %34, i32 0, i32 1
  %36 = load i64, ptr %35, align 8
  %37 = trunc i64 %36 to i32
  %38 = call i32 (ptr, i64, ptr, ...) @pg_snprintf(ptr noundef %10, i64 noundef 1024, ptr noundef @.str.2, i32 noundef %13, i32 noundef %21, i32 noundef %25, i32 noundef %33, i32 noundef %37)
  %39 = getelementptr inbounds [1024 x i8], ptr %5, i64 0, i64 0
  %40 = call i32 @lstat(ptr noundef %39, ptr noundef %6) #10
  %41 = icmp ne i32 %40, 0
  br i1 %41, label %42, label %60

42:                                               ; preds = %28
  %43 = call ptr @__errno_location() #12
  %44 = load i32, ptr %43, align 4
  %45 = icmp eq i32 %44, 2
  br i1 %45, label %46, label %47

46:                                               ; preds = %42
  store i32 1, ptr %9, align 4
  br label %96

47:                                               ; preds = %42
  br label %48

48:                                               ; preds = %47
  br i1 true, label %49, label %51

49:                                               ; preds = %48
  %50 = call zeroext i1 @errstart_cold(i32 noundef 21, ptr noundef null) #13
  br i1 %50, label %53, label %57

51:                                               ; preds = %48
  %52 = call zeroext i1 @errstart(i32 noundef 21, ptr noundef null)
  br i1 %52, label %53, label %57

53:                                               ; preds = %51, %49
  %54 = call i32 @errcode_for_file_access()
  %55 = getelementptr inbounds [1024 x i8], ptr %5, i64 0, i64 0
  %56 = call i32 (ptr, ...) @errmsg(ptr noundef @.str.5, ptr noundef %55)
  call void @errfinish(ptr noundef @.str.4, i32 noundef 247, ptr noundef @__func__.RemoveWalSummaryIfOlderThan)
  br label %57

57:                                               ; preds = %53, %51, %49
  unreachable

58:                                               ; No predecessors!
  br label %59

59:                                               ; preds = %58
  br label %60

60:                                               ; preds = %59, %28
  %61 = getelementptr inbounds nuw %struct.stat, ptr %6, i32 0, i32 12
  %62 = getelementptr inbounds nuw %struct.timespec, ptr %61, i32 0, i32 0
  %63 = load i64, ptr %62, align 8
  %64 = load i64, ptr %4, align 8
  %65 = icmp sge i64 %63, %64
  br i1 %65, label %66, label %67

66:                                               ; preds = %60
  store i32 1, ptr %9, align 4
  br label %96

67:                                               ; preds = %60
  %68 = getelementptr inbounds [1024 x i8], ptr %5, i64 0, i64 0
  %69 = call i32 @unlink(ptr noundef %68) #10
  %70 = icmp ne i32 %69, 0
  br i1 %70, label %71, label %84

71:                                               ; preds = %67
  br label %72

72:                                               ; preds = %71
  br i1 true, label %73, label %75

73:                                               ; preds = %72
  %74 = call zeroext i1 @errstart_cold(i32 noundef 21, ptr noundef null) #13
  br i1 %74, label %77, label %81

75:                                               ; preds = %72
  %76 = call zeroext i1 @errstart(i32 noundef 21, ptr noundef null)
  br i1 %76, label %77, label %81

77:                                               ; preds = %75, %73
  %78 = call i32 @errcode_for_file_access()
  %79 = getelementptr inbounds [1024 x i8], ptr %5, i64 0, i64 0
  %80 = call i32 (ptr, ...) @errmsg(ptr noundef @.str.5, ptr noundef %79)
  call void @errfinish(ptr noundef @.str.4, i32 noundef 254, ptr noundef @__func__.RemoveWalSummaryIfOlderThan)
  br label %81

81:                                               ; preds = %77, %75, %73
  unreachable

82:                                               ; No predecessors!
  br label %83

83:                                               ; preds = %82
  br label %84

84:                                               ; preds = %83, %67
  br label %85

85:                                               ; preds = %84
  br i1 false, label %86, label %88

86:                                               ; preds = %85
  %87 = call zeroext i1 @errstart_cold(i32 noundef 13, ptr noundef null) #13
  br i1 %87, label %90, label %93

88:                                               ; preds = %85
  %89 = call zeroext i1 @errstart(i32 noundef 13, ptr noundef null)
  br i1 %89, label %90, label %93

90:                                               ; preds = %88, %86
  %91 = getelementptr inbounds [1024 x i8], ptr %5, i64 0, i64 0
  %92 = call i32 (ptr, ...) @errmsg_internal(ptr noundef @.str.6, ptr noundef %91)
  call void @errfinish(ptr noundef @.str.4, i32 noundef 256, ptr noundef @__func__.RemoveWalSummaryIfOlderThan)
  br label %93

93:                                               ; preds = %90, %88, %86
  br label %94

94:                                               ; preds = %93
  br label %95

95:                                               ; preds = %94
  store i32 0, ptr %9, align 4
  br label %96

96:                                               ; preds = %95, %66, %46
  call void @llvm.lifetime.end.p0(i64 144, ptr %6) #10
  call void @llvm.lifetime.end.p0(i64 1024, ptr %5) #10
  %97 = load i32, ptr %9, align 4
  switch i32 %97, label %99 [
    i32 0, label %98
    i32 1, label %98
  ]

98:                                               ; preds = %96, %96
  ret void

99:                                               ; preds = %96
  unreachable
}