; Function Attrs: nounwind uwtable
define dso_local void @RemoveWalSummaryIfOlderThan(ptr noundef readonly captures(none) %0, i64 noundef %1) local_unnamed_addr #0 {
  %3 = alloca [1024 x i8], align 16
  %4 = alloca %struct.stat, align 8
  call void @llvm.lifetime.start.p0(i64 1024, ptr nonnull %3) #12
  call void @llvm.lifetime.start.p0(i64 144, ptr nonnull %4) #12
  %5 = getelementptr inbounds nuw i8, ptr %0, i64 16
  %6 = load i32, ptr %5, align 8
  %7 = load i64, ptr %0, align 8
  %8 = lshr i64 %7, 32
  %9 = trunc nuw i64 %8 to i32
  %10 = trunc i64 %7 to i32
  %11 = getelementptr inbounds nuw i8, ptr %0, i64 8
  %12 = load i64, ptr %11, align 8
  %13 = lshr i64 %12, 32
  %14 = trunc nuw i64 %13 to i32
  %15 = trunc i64 %12 to i32
  %16 = call i32 (ptr, i64, ptr, ...) @pg_snprintf(ptr noundef nonnull %3, i64 noundef 1024, ptr noundef nonnull @.str.2, i32 noundef %6, i32 noundef %9, i32 noundef %10, i32 noundef %14, i32 noundef %15) #12
  %17 = call i32 @lstat(ptr noundef nonnull %3, ptr noundef nonnull %4) #12
  %.not = icmp eq i32 %17, 0
  br i1 %.not, label %26, label %18

18:                                               ; preds = %2
  %19 = tail call ptr @__errno_location() #14
  %20 = load i32, ptr %19, align 4
  %21 = icmp eq i32 %20, 2
  br i1 %21, label %39, label %22

22:                                               ; preds = %18
  %23 = call zeroext i1 @errstart_cold(i32 noundef 21, ptr noundef null) #15
  call void @llvm.assume(i1 %23)
  %24 = call i32 @errcode_for_file_access() #12
  %25 = call i32 (ptr, ...) @errmsg(ptr noundef nonnull @.str.5, ptr noundef nonnull %3) #12
  call void @errfinish(ptr noundef nonnull @.str.4, i32 noundef 247, ptr noundef nonnull @__func__.RemoveWalSummaryIfOlderThan) #12
  unreachable

26:                                               ; preds = %2
  %27 = getelementptr inbounds nuw i8, ptr %4, i64 88
  %28 = load i64, ptr %27, align 8
  %.not5 = icmp slt i64 %28, %1
  br i1 %.not5, label %29, label %39

29:                                               ; preds = %26
  %30 = call i32 @unlink(ptr noundef nonnull %3) #12
  %.not6 = icmp eq i32 %30, 0
  br i1 %.not6, label %35, label %31

31:                                               ; preds = %29
  %32 = call zeroext i1 @errstart_cold(i32 noundef 21, ptr noundef null) #15
  call void @llvm.assume(i1 %32)
  %33 = call i32 @errcode_for_file_access() #12
  %34 = call i32 (ptr, ...) @errmsg(ptr noundef nonnull @.str.5, ptr noundef nonnull %3) #12
  call void @errfinish(ptr noundef nonnull @.str.4, i32 noundef 254, ptr noundef nonnull @__func__.RemoveWalSummaryIfOlderThan) #12
  unreachable

35:                                               ; preds = %29
  %36 = call zeroext i1 @errstart(i32 noundef 13, ptr noundef null) #12
  br i1 %36, label %37, label %39

37:                                               ; preds = %35
  %38 = call i32 (ptr, ...) @errmsg_internal(ptr noundef nonnull @.str.6, ptr noundef nonnull %3) #12
  call void @errfinish(ptr noundef nonnull @.str.4, i32 noundef 256, ptr noundef nonnull @__func__.RemoveWalSummaryIfOlderThan) #12
  br label %39

39:                                               ; preds = %35, %37, %26, %18
  call void @llvm.lifetime.end.p0(i64 144, ptr nonnull %4) #12
  call void @llvm.lifetime.end.p0(i64 1024, ptr nonnull %3) #12
  ret void
}